target datalayout = "e-m:e-p270:32:32-p271:32:32-p272:64:64-i64:64-i128:128-f80:128-n8:16:32:64-S128"
target triple = "x86_64-pc-linux-gnu"

%"class.datalog::ddnf_core" = type { ptr }
%"class.datalog::ddnf_mgr" = type { ptr, %class.ref_vector, i8, %class.tbv_manager, %"struct.datalog::ddnf_node::hash", %"struct.datalog::ddnf_node::eq", %class.ptr_hashtable, %class.svector, %"struct.datalog::ddnf_mgr::stats" }
%class.ref_vector = type { %class.ref_vector_core }
%class.ref_vector_core = type { %class.ref_manager_wrapper, %class.ptr_vector }
%class.ref_manager_wrapper = type { ptr }
%class.ptr_vector = type { %class.vector }
%class.vector = type { ptr }
%class.tbv_manager = type { %class.fixed_bit_vector_manager, %class.ptr_vector.0 }
%class.fixed_bit_vector_manager = type <{ %class.small_object_allocator, i32, i32, i32, i32, %class.fixed_bit_vector, [4 x i8] }>
%class.small_object_allocator = type { [32 x ptr], [32 x ptr], i64 }
%class.fixed_bit_vector = type { [1 x i32] }
%class.ptr_vector.0 = type { %class.vector.1 }
%class.vector.1 = type { ptr }
%"struct.datalog::ddnf_node::hash" = type { ptr }
%"struct.datalog::ddnf_node::eq" = type { ptr }
%class.ptr_hashtable = type { %class.core_hashtable.base, [4 x i8] }
%class.core_hashtable.base = type <{ %"struct.datalog::ddnf_node::hash", %"struct.datalog::ddnf_node::eq", ptr, i32, i32, i32 }>
%class.svector = type { %class.vector.2 }
%class.vector.2 = type { ptr }
%"struct.datalog::ddnf_mgr::stats" = type { i32, i32 }
%class.core_hashtable = type <{ %"struct.datalog::ddnf_node::hash", %"struct.datalog::ddnf_node::eq", ptr, i32, i32, i32, [4 x i8] }>

; Function Attrs: mustprogress nounwind uwtable
define linkonce_odr hidden noundef i32 @_ZNK6vectorIbLb0EjE8capacityEv(ptr noundef nonnull align 8 dereferenceable(8) %0) #5 comdat align 2 {
  %2 = alloca i32, align 4
  %3 = alloca ptr, align 8
  store ptr %0, ptr %3, align 8, !tbaa !328
  %4 = load ptr, ptr %3, align 8
  %5 = getelementptr inbounds nuw %class.vector.2, ptr %4, i32 0, i32 0
  %6 = load ptr, ptr %5, align 8, !tbaa !351
  %7 = icmp eq ptr %6, null
  br i1 %7, label %8, label %9

8:                                                ; preds = %1
  store i32 0, ptr %2, align 4
  br label %14

9:                                                ; preds = %1
  %10 = getelementptr inbounds nuw %class.vector.2, ptr %4, i32 0, i32 0
  %11 = load ptr, ptr %10, align 8, !tbaa !351
  %12 = getelementptr inbounds i32, ptr %11, i64 -2
  %13 = load i32, ptr %12, align 4, !tbaa !8
  store i32 %13, ptr %2, align 4
  br label %14

14:                                               ; preds = %9, %8
  %15 = load i32, ptr %2, align 4
  ret i32 %15
}

; Function Attrs: mustprogress nounwind uwtable
define linkonce_odr hidden void @_ZN6vectorIbLb0EjE6shrinkEj(ptr noundef nonnull align 8 dereferenceable(8) %0, i32 noundef %1) #5 comdat align 2 {
  %3 = alloca ptr, align 8
  %4 = alloca i32, align 4
  store ptr %0, ptr %3, align 8, !tbaa !328
  store i32 %1, ptr %4, align 4, !tbaa !8
  %5 = load ptr, ptr %3, align 8
  %6 = getelementptr inbounds nuw %class.vector.2, ptr %5, i32 0, i32 0
  %7 = load ptr, ptr %6, align 8, !tbaa !351
  %8 = icmp ne ptr %7, null
  br i1 %8, label %9, label %14

9:                                                ; preds = %2
  %10 = load i32, ptr %4, align 4, !tbaa !8
  %11 = getelementptr inbounds nuw %class.vector.2, ptr %5, i32 0, i32 0
  %12 = load ptr, ptr %11, align 8, !tbaa !351
  %13 = getelementptr inbounds i32, ptr %12, i64 -1
  store i32 %10, ptr %13, align 4, !tbaa !8
  br label %15

14:                                               ; preds = %2
  br label %15

15:                                               ; preds = %14, %9
  ret void
}

; Function Attrs: mustprogress nounwind uwtable
define linkonce_odr hidden noundef nonnull align 1 dereferenceable(1) ptr @_ZN6vectorIbLb0EjEixEj(ptr noundef nonnull align 8 dereferenceable(8) %0, i32 noundef %1) #5 comdat align 2 {
  %3 = alloca ptr, align 8
  %4 = alloca i32, align 4
  store ptr %0, ptr %3, align 8, !tbaa !328
  store i32 %1, ptr %4, align 4, !tbaa !8
  %5 = load ptr, ptr %3, align 8
  %6 = getelementptr inbounds nuw %class.vector.2, ptr %5, i32 0, i32 0
  %7 = load ptr, ptr %6, align 8, !tbaa !351
  %8 = load i32, ptr %4, align 4, !tbaa !8
  %9 = zext i32 %8 to i64
  %10 = getelementptr inbounds nuw i8, ptr %7, i64 %9
  ret ptr %10
}

; Function Attrs: mustprogress nounwind uwtable
define linkonce_odr hidden noundef i32 @_ZNK6vectorIbLb0EjE4sizeEv(ptr noundef nonnull align 8 dereferenceable(8) %0) #5 comdat align 2 {
  %2 = alloca i32, align 4
  %3 = alloca ptr, align 8
  store ptr %0, ptr %3, align 8, !tbaa !328
  %4 = load ptr, ptr %3, align 8
  %5 = getelementptr inbounds nuw %class.vector.2, ptr %4, i32 0, i32 0
  %6 = load ptr, ptr %5, align 8, !tbaa !351
  %7 = icmp eq ptr %6, null
  br i1 %7, label %8, label %9

8:                                                ; preds = %1
  store i32 0, ptr %2, align 4
  br label %14

9:                                                ; preds = %1
  %10 = getelementptr inbounds nuw %class.vector.2, ptr %4, i32 0, i32 0
  %11 = load ptr, ptr %10, align 8, !tbaa !351
  %12 = getelementptr inbounds i32, ptr %11, i64 -1
  %13 = load i32, ptr %12, align 4, !tbaa !8
  store i32 %13, ptr %2, align 4
  br label %14

14:                                               ; preds = %9, %8
  %15 = load i32, ptr %2, align 4
  ret i32 %15
}

; Function Attrs: mustprogress uwtable
define linkonce_odr hidden void @_ZN6vectorIbLb0EjE6resizeEj(ptr noundef nonnull align 8 dereferenceable(8) %0, i32 noundef %1) #4 comdat align 2 {
  %3 = alloca ptr, align 8
  %4 = alloca i32, align 4
  %5 = alloca i32, align 4
  %6 = alloca i32, align 4
  %7 = alloca ptr, align 8
  %8 = alloca ptr, align 8
  store ptr %0, ptr %3, align 8, !tbaa !328
  store i32 %1, ptr %4, align 4, !tbaa !8
  %9 = load ptr, ptr %3, align 8
  call void @llvm.lifetime.start.p0(i64 4, ptr %5) #3
  %10 = call noundef i32 @_ZNK6vectorIbLb0EjE4sizeEv(ptr noundef nonnull align 8 dereferenceable(8) %9)
  store i32 %10, ptr %5, align 4, !tbaa !8
  %11 = load i32, ptr %4, align 4, !tbaa !8
  %12 = load i32, ptr %5, align 4, !tbaa !8
  %13 = icmp ule i32 %11, %12
  br i1 %13, label %14, label %16

14:                                               ; preds = %2
  %15 = load i32, ptr %4, align 4, !tbaa !8
  call void @_ZN6vectorIbLb0EjE6shrinkEj(ptr noundef nonnull align 8 dereferenceable(8) %9, i32 noundef %15)
  store i32 1, ptr %6, align 4
  br label %47

16:                                               ; preds = %2
  br label %17

17:                                               ; preds = %21, %16
  %18 = load i32, ptr %4, align 4, !tbaa !8
  %19 = call noundef i32 @_ZNK6vectorIbLb0EjE8capacityEv(ptr noundef nonnull align 8 dereferenceable(8) %9)
  %20 = icmp ugt i32 %18, %19
  br i1 %20, label %21, label %22

21:                                               ; preds = %17
  call void @_ZN6vectorIbLb0EjE13expand_vectorEv(ptr noundef nonnull align 8 dereferenceable(8) %9)
  br label %17, !llvm.loop !428

22:                                               ; preds = %17
  %23 = load i32, ptr %4, align 4, !tbaa !8
  %24 = getelementptr inbounds nuw %class.vector.2, ptr %9, i32 0, i32 0
  %25 = load ptr, ptr %24, align 8, !tbaa !351
  %26 = getelementptr inbounds i32, ptr %25, i64 -1
  store i32 %23, ptr %26, align 4, !tbaa !8
  call void @llvm.lifetime.start.p0(i64 8, ptr %7) #3
  %27 = getelementptr inbounds nuw %class.vector.2, ptr %9, i32 0, i32 0
  %28 = load ptr, ptr %27, align 8, !tbaa !351
  %29 = load i32, ptr %5, align 4, !tbaa !8
  %30 = zext i32 %29 to i64
  %31 = getelementptr inbounds nuw i8, ptr %28, i64 %30
  store ptr %31, ptr %7, align 8, !tbaa !429
  call void @llvm.lifetime.start.p0(i64 8, ptr %8) #3
  %32 = getelementptr inbounds nuw %class.vector.2, ptr %9, i32 0, i32 0
  %33 = load ptr, ptr %32, align 8, !tbaa !351
  %34 = load i32, ptr %4, align 4, !tbaa !8
  %35 = zext i32 %34 to i64
  %36 = getelementptr inbounds nuw i8, ptr %33, i64 %35
  store ptr %36, ptr %8, align 8, !tbaa !429
  br label %37

37:                                               ; preds = %43, %22
  %38 = load ptr, ptr %7, align 8, !tbaa !429
  %39 = load ptr, ptr %8, align 8, !tbaa !429
  %40 = icmp ne ptr %38, %39
  br i1 %40, label %41, label %46

41:                                               ; preds = %37
  %42 = load ptr, ptr %7, align 8, !tbaa !429
  store i8 0, ptr %42, align 1, !tbaa !49
  br label %43

43:                                               ; preds = %41
  %44 = load ptr, ptr %7, align 8, !tbaa !429
  %45 = getelementptr inbounds nuw i8, ptr %44, i32 1
  store ptr %45, ptr %7, align 8, !tbaa !429
  br label %37, !llvm.loop !430

46:                                               ; preds = %37
  call void @llvm.lifetime.end.p0(i64 8, ptr %8) #3
  call void @llvm.lifetime.end.p0(i64 8, ptr %7) #3
  store i32 0, ptr %6, align 4
  br label %47

47:                                               ; preds = %46, %14
  call void @llvm.lifetime.end.p0(i64 4, ptr %5) #3
  %48 = load i32, ptr %6, align 4
  switch i32 %48, label %50 [
    i32 0, label %49
    i32 1, label %49
  ]

49:                                               ; preds = %47, %47
  ret void

50:                                               ; preds = %47
  unreachable
}

; Function Attrs: mustprogress nounwind uwtable
define linkonce_odr hidden noundef i32 @_ZNK14core_hashtableI14ptr_hash_entryIN7datalog9ddnf_nodeEENS2_4hashENS2_2eqEE4sizeEv(ptr noundef nonnull align 8 dereferenceable(36) %0) #5 comdat align 2 {
  %2 = alloca ptr, align 8
  store ptr %0, ptr %2, align 8, !tbaa !321
  %3 = load ptr, ptr %2, align 8
  %4 = getelementptr inbounds nuw %class.core_hashtable, ptr %3, i32 0, i32 4
  %5 = load i32, ptr %4, align 4, !tbaa !323
  ret i32 %5
}

; Function Attrs: mustprogress uwtable
define linkonce_odr hidden void @_ZN7datalog8ddnf_mgr16reset_accumulateEv(ptr noundef nonnull align 8 dereferenceable(656) %0) #4 comdat align 2 {
  %2 = alloca ptr, align 8
  %3 = alloca i32, align 4
  store ptr %0, ptr %2, align 8, !tbaa !13
  %4 = load ptr, ptr %2, align 8
  %5 = getelementptr inbounds nuw %"class.datalog::ddnf_mgr", ptr %4, i32 0, i32 7
  %6 = getelementptr inbounds nuw %"class.datalog::ddnf_mgr", ptr %4, i32 0, i32 6
  %7 = call noundef i32 @_ZNK14core_hashtableI14ptr_hash_entryIN7datalog9ddnf_nodeEENS2_4hashENS2_2eqEE4sizeEv(ptr noundef nonnull align 8 dereferenceable(36) %6)
  call void @_ZN6vectorIbLb0EjE6resizeEj(ptr noundef nonnull align 8 dereferenceable(8) %5, i32 noundef %7)
  call void @llvm.lifetime.start.p0(i64 4, ptr %3) #3
  store i32 0, ptr %3, align 4, !tbaa !8
  br label %8

8:                                                ; preds = %18, %1
  %9 = load i32, ptr %3, align 4, !tbaa !8
  %10 = getelementptr inbounds nuw %"class.datalog::ddnf_mgr", ptr %4, i32 0, i32 7
  %11 = call noundef i32 @_ZNK6vectorIbLb0EjE4sizeEv(ptr noundef nonnull align 8 dereferenceable(8) %10)
  %12 = icmp ult i32 %9, %11
  br i1 %12, label %14, label %13

13:                                               ; preds = %8
  call void @llvm.lifetime.end.p0(i64 4, ptr %3) #3
  br label %21

14:                                               ; preds = %8
  %15 = getelementptr inbounds nuw %"class.datalog::ddnf_mgr", ptr %4, i32 0, i32 7
  %16 = load i32, ptr %3, align 4, !tbaa !8
  %17 = call noundef nonnull align 1 dereferenceable(1) ptr @_ZN6vectorIbLb0EjEixEj(ptr noundef nonnull align 8 dereferenceable(8) %15, i32 noundef %16)
  store i8 0, ptr %17, align 1, !tbaa !49
  br label %18

18:                                               ; preds = %14
  %19 = load i32, ptr %3, align 4, !tbaa !8
  %20 = add i32 %19, 1
  store i32 %20, ptr %3, align 4, !tbaa !8
  br label %8, !llvm.loop !54

21:                                               ; preds = %13
  ret void
}

; Function Attrs: mustprogress uwtable
define hidden void @_ZN7datalog9ddnf_core16reset_accumulateEv(ptr noundef nonnull align 8 dereferenceable(8) %0) #4 align 2 {
  %2 = alloca ptr, align 8
  store ptr %0, ptr %2, align 8, !tbaa !3
  %3 = load ptr, ptr %2, align 8
  %4 = getelementptr inbounds nuw %"class.datalog::ddnf_core", ptr %3, i32 0, i32 0
  %5 = load ptr, ptr %4, align 8, !tbaa !10
  call void @_ZN7datalog8ddnf_mgr16reset_accumulateEv(ptr noundef nonnull align 8 dereferenceable(656) %5)
  ret void
}