; Function Attrs: mustprogress uwtable
define hidden void @_ZN7datalog9ddnf_core16reset_accumulateEv(ptr noundef nonnull readonly align 8 captures(none) dereferenceable(8) %0) local_unnamed_addr #3 align 2 {
  %2 = load ptr, ptr %0, align 8, !tbaa !3
  %3 = getelementptr inbounds nuw i8, ptr %2, i64 640
  %4 = getelementptr inbounds nuw i8, ptr %2, i64 628
  %5 = load i32, ptr %4, align 4, !tbaa !49
  %6 = load ptr, ptr %3, align 8, !tbaa !62
  %7 = icmp eq ptr %6, null
  br i1 %7, label %_ZNK6vectorIbLb0EjE4sizeEv.exit.i.i, label %_ZNK6vectorIbLb0EjE4sizeEv.exit.thread.i.i

_ZNK6vectorIbLb0EjE4sizeEv.exit.i.i:              ; preds = %1
  %.not.not.i.i = icmp eq i32 %5, 0
  br i1 %.not.not.i.i, label %_ZN7datalog8ddnf_mgr16reset_accumulateEv.exit, label %thread-pre-split.i.i.preheader

_ZNK6vectorIbLb0EjE4sizeEv.exit.thread.i.i:       ; preds = %1
  %8 = getelementptr inbounds i8, ptr %6, i64 -4
  %9 = load i32, ptr %8, align 4, !tbaa !57
  %.not15.i.i = icmp ugt i32 %5, %9
  br i1 %.not15.i.i, label %thread-pre-split.i.i.preheader, label %10

thread-pre-split.i.i.preheader:                   ; preds = %_ZNK6vectorIbLb0EjE4sizeEv.exit.i.i, %_ZNK6vectorIbLb0EjE4sizeEv.exit.thread.i.i
  %.ph = phi ptr [ %6, %_ZNK6vectorIbLb0EjE4sizeEv.exit.thread.i.i ], [ null, %_ZNK6vectorIbLb0EjE4sizeEv.exit.i.i ]
  %.0.i16.i.i.ph = phi i32 [ %9, %_ZNK6vectorIbLb0EjE4sizeEv.exit.thread.i.i ], [ 0, %_ZNK6vectorIbLb0EjE4sizeEv.exit.i.i ]
  br label %thread-pre-split.i.i

10:                                               ; preds = %_ZNK6vectorIbLb0EjE4sizeEv.exit.thread.i.i
  store i32 %5, ptr %8, align 4, !tbaa !57
  br label %_ZN6vectorIbLb0EjE6resizeEj.exit.split.i

thread-pre-split.i.i:                             ; preds = %thread-pre-split.i.i.preheader, %_ZNK6vectorIbLb0EjE8capacityEv.exit.thread.i.i
  %11 = phi ptr [ %.pr.pre.i.i, %_ZNK6vectorIbLb0EjE8capacityEv.exit.thread.i.i ], [ %.ph, %thread-pre-split.i.i.preheader ]
  %12 = icmp eq ptr %11, null
  br i1 %12, label %_ZNK6vectorIbLb0EjE8capacityEv.exit.thread.i.i, label %_ZNK6vectorIbLb0EjE8capacityEv.exit.i.i

_ZNK6vectorIbLb0EjE8capacityEv.exit.i.i:          ; preds = %thread-pre-split.i.i
  %13 = getelementptr inbounds i8, ptr %11, i64 -8
  %14 = load i32, ptr %13, align 4, !tbaa !57
  %15 = icmp ugt i32 %5, %14
  br i1 %15, label %_ZNK6vectorIbLb0EjE8capacityEv.exit.thread.i.i, label %16

_ZNK6vectorIbLb0EjE8capacityEv.exit.thread.i.i:   ; preds = %_ZNK6vectorIbLb0EjE8capacityEv.exit.i.i, %thread-pre-split.i.i
  tail call void @_ZN6vectorIbLb0EjE13expand_vectorEv(ptr noundef nonnull align 8 dereferenceable(8) %3)
  %.pr.pre.i.i = load ptr, ptr %3, align 8, !tbaa !62
  br label %thread-pre-split.i.i, !llvm.loop !63

16:                                               ; preds = %_ZNK6vectorIbLb0EjE8capacityEv.exit.i.i
  %17 = getelementptr inbounds i8, ptr %11, i64 -4
  store i32 %5, ptr %17, align 4, !tbaa !57
  %.not1218.i.i = icmp eq i32 %.0.i16.i.i.ph, %5
  br i1 %.not1218.i.i, label %_ZN6vectorIbLb0EjE6resizeEj.exit.split.i, label %.lr.ph.preheader.i.i

.lr.ph.preheader.i.i:                             ; preds = %16
  %18 = zext i32 %5 to i64
  %19 = zext i32 %.0.i16.i.i.ph to i64
  %20 = getelementptr i8, ptr %11, i64 %19
  %21 = sub nsw i64 %18, %19
  tail call void @llvm.memset.p0.i64(ptr align 1 %20, i8 0, i64 %21, i1 false), !tbaa !64
  br label %_ZN6vectorIbLb0EjE6resizeEj.exit.split.i

_ZN6vectorIbLb0EjE6resizeEj.exit.split.i:         ; preds = %.lr.ph.preheader.i.i, %16, %10
  %.ph.i = phi ptr [ %11, %.lr.ph.preheader.i.i ], [ %11, %16 ], [ %6, %10 ]
  %.not.i = icmp eq i32 %5, 0
  br i1 %.not.i, label %_ZN7datalog8ddnf_mgr16reset_accumulateEv.exit, label %_ZNK6vectorIbLb0EjE4sizeEv.exit.preheader.i

_ZNK6vectorIbLb0EjE4sizeEv.exit.preheader.i:      ; preds = %_ZN6vectorIbLb0EjE6resizeEj.exit.split.i
  %22 = zext i32 %5 to i64
  tail call void @llvm.memset.p0.i64(ptr nonnull align 1 %.ph.i, i8 0, i64 %22, i1 false), !tbaa !64
  br label %_ZN7datalog8ddnf_mgr16reset_accumulateEv.exit

_ZN7datalog8ddnf_mgr16reset_accumulateEv.exit:    ; preds = %_ZNK6vectorIbLb0EjE4sizeEv.exit.i.i, %_ZN6vectorIbLb0EjE6resizeEj.exit.split.i, %_ZNK6vectorIbLb0EjE4sizeEv.exit.preheader.i
  ret void
}